Certificate:
    Data:
        Version: 1 (0x0)
        Serial Number: 2 (0x2)
    Signature Algorithm: ecdsa-with-SHA256
        Issuer: C=QQ, O=Org1, CN=TestCA1
        Validity
            Not Before: Aug 18 20:51:52 2015 GMT
            Not After : Aug 31 20:51:52 2043 GMT
        Subject: C=BB, L=city2, O=Org1, OU=none, CN=client1
        Subject Public Key Info:
            Public Key Algorithm: id-ecPublicKey
                Public-Key: (384 bit)
                pub: 
                    04:5d:74:02:a0:0e:f8:49:af:b3:87:c0:74:94:0e:
                    b4:5b:ec:d3:3a:9f:b7:0a:df:be:18:95:15:3d:28:
                    f6:b7:6b:18:2c:f3:74:f7:33:bb:99:87:c0:61:64:
                    64:b8:e4:b3:dc:68:f5:a8:0e:4d:9b:68:30:37:ff:
                    66:fa:66:c9:10:d8:82:36:6b:8b:d9:0d:c3:75:42:
                    70:b4:29:e7:d4:aa:8f:bc:0a:83:6c:75:84:f5:b4:
                    9a:56:18:bd:c6:3e:6f
                ASN1 OID: secp384r1
    Signature Algorithm: ecdsa-with-SHA256
         30:45:02:20:01:9e:e5:4e:57:fb:55:58:9b:7b:dc:59:e6:b5:
         2e:45:b0:80:23:e2:db:80:75:43:34:b2:f0:ff:b9:25:96:7d:
         02:21:00:cc:77:c8:18:9f:2b:4f:0c:4a:55:22:e2:49:49:d9:
         b0:68:54:3c:24:ce:69:aa:ad:e8:4b:bd:a1:c8:67:f3:3c
-----BEGIN CERTIFICATE-----
MIIBgDCCASYCAQIwCgYIKoZIzj0EAwIwLjELMAkGA1UEBhMCUVExDTALBgNVBAoT
BE9yZzExEDAOBgNVBAMTB1Rlc3RDQTEwHhcNMTUwODE4MjA1MTUyWhcNNDMwODMx
MjA1MTUyWjBNMQswCQYDVQQGEwJCQjEOMAwGA1UEBxMFY2l0eTIxDTALBgNVBAoT
BE9yZzExDTALBgNVBAsTBG5vbmUxEDAOBgNVBAMTB2NsaWVudDEwdjAQBgcqhkjO
PQIBBgUrgQQAIgNiAARddAKgDvhJr7OHwHSUDrRb7NM6n7cK374YlRU9KPa3axgs
83T3M7uZh8BhZGS45LPcaPWoDk2baDA3/2b6ZskQ2II2a4vZDcN1QnC0KefUqo+8
CoNsdYT1tJpWGL3GPm8wCgYIKoZIzj0EAwIDSAAwRQIgAZ7lTlf7VVibe9xZ5rUu
RbCAI+LbgHVDNLLw/7klln0CIQDMd8gYnytPDEpVIuJJSdmwaFQ8JM5pqq3oS72h
yGfzPA==
-----END CERTIFICATE-----
