Certificate:
    Data:
        Version: 1 (0x0)
        Serial Number: 2 (0x2)
    Signature Algorithm: ecdsa-with-SHA256
        Issuer: C=ZZ, O=Org1, CN=TestCA2
        Validity
            Not Before: Aug  5 19:59:10 2015 GMT
            Not After : Aug 18 19:59:10 2043 GMT
        Subject: C=EE, L=city5, O=Org2, OU=none, CN=client2
        Subject Public Key Info:
            Public Key Algorithm: id-ecPublicKey
                Public-Key: (256 bit)
                pub: 
                    04:0d:42:e5:3e:1b:30:8b:31:47:b3:b7:54:a6:4b:
                    2e:d0:66:55:d5:8f:5d:14:60:1f:7c:c6:6d:01:ed:
                    a5:69:bd:b0:77:54:9e:3d:02:9b:8c:d4:db:d0:33:
                    00:8c:b3:55:4c:88:70:9a:45:8e:d9:70:20:15:5f:
                    9e:25:cf:89:0b
                ASN1 OID: prime256v1
    Signature Algorithm: ecdsa-with-SHA256
         30:45:02:21:00:84:d7:8c:31:3f:6a:ea:f1:81:14:0b:50:82:
         61:ca:fe:6f:9e:47:46:48:43:ed:6d:9c:00:be:c9:51:19:26:
         10:02:20:35:5d:e0:ee:7e:3b:e1:b3:17:1d:44:33:a4:79:1b:
         ce:58:97:52:0c:9f:77:6e:5e:85:57:d0:91:04:49:7f:52
-----BEGIN CERTIFICATE-----
MIIBYzCCAQkCAQIwCgYIKoZIzj0EAwIwLjELMAkGA1UEBhMCWloxDTALBgNVBAoT
BE9yZzExEDAOBgNVBAMTB1Rlc3RDQTIwHhcNMTUwODA1MTk1OTEwWhcNNDMwODE4
MTk1OTEwWjBNMQswCQYDVQQGEwJFRTEOMAwGA1UEBxMFY2l0eTUxDTALBgNVBAoT
BE9yZzIxDTALBgNVBAsTBG5vbmUxEDAOBgNVBAMTB2NsaWVudDIwWTATBgcqhkjO
PQIBBggqhkjOPQMBBwNCAAQNQuU+GzCLMUezt1SmSy7QZlXVj10UYB98xm0B7aVp
vbB3VJ49ApuM1NvQMwCMs1VMiHCaRY7ZcCAVX54lz4kLMAoGCCqGSM49BAMCA0gA
MEUCIQCE14wxP2rq8YEUC1CCYcr+b55HRkhD7W2cAL7JURkmEAIgNV3g7n474bMX
HUQzpHkbzliXUgyfd25ehVfQkQRJf1I=
-----END CERTIFICATE-----
