Certificate:
    Data:
        Version: 1 (0x0)
        Serial Number: 1 (0x1)
    Signature Algorithm: ecdsa-with-SHA256
        Issuer: C=QQ, O=Org1, CN=TestCA1
        Validity
            Not Before: Aug  5 19:59:09 2015 GMT
            Not After : Aug 18 19:59:09 2043 GMT
        Subject: C=AA, L=city1, O=Org1, OU=none, CN=example.com
        Subject Public Key Info:
            Public Key Algorithm: id-ecPublicKey
                Public-Key: (256 bit)
                pub: 
                    04:06:cd:6f:ec:fd:f1:83:74:fd:bd:b3:d5:f5:29:
                    45:a9:49:9e:4e:03:c4:ea:d4:5e:75:9d:92:83:8f:
                    74:c2:a0:fd:29:14:65:8e:9f:8c:cd:fb:68:bc:1b:
                    5f:50:4e:85:73:2b:52:98:b3:e6:4f:92:06:fa:05:
                    eb:5e:88:71:26
                ASN1 OID: prime256v1
    Signature Algorithm: ecdsa-with-SHA256
         30:44:02:20:5f:42:80:38:1b:5c:91:60:aa:5e:f7:e0:23:73:
         7c:ca:a1:8f:9c:0e:fe:64:03:7b:c1:ac:a8:4c:e3:91:9a:2c:
         02:20:62:9c:e3:01:28:95:12:3c:7f:68:d7:6a:cf:0c:a3:4a:
         6d:8b:f4:94:d1:11:77:10:92:c2:c1:4b:3e:ff:f6:5c
-----BEGIN CERTIFICATE-----
MIIBZjCCAQ0CAQEwCgYIKoZIzj0EAwIwLjELMAkGA1UEBhMCUVExDTALBgNVBAoT
BE9yZzExEDAOBgNVBAMTB1Rlc3RDQTEwHhcNMTUwODA1MTk1OTA5WhcNNDMwODE4
MTk1OTA5WjBRMQswCQYDVQQGEwJBQTEOMAwGA1UEBxMFY2l0eTExDTALBgNVBAoT
BE9yZzExDTALBgNVBAsTBG5vbmUxFDASBgNVBAMTC2V4YW1wbGUuY29tMFkwEwYH
KoZIzj0CAQYIKoZIzj0DAQcDQgAEBs1v7P3xg3T9vbPV9SlFqUmeTgPE6tRedZ2S
g490wqD9KRRljp+MzftovBtfUE6FcytSmLPmT5IG+gXrXohxJjAKBggqhkjOPQQD
AgNHADBEAiBfQoA4G1yRYKpe9+Ajc3zKoY+cDv5kA3vBrKhM45GaLAIgYpzjASiV
Ejx/aNdqzwyjSm2L9JTREXcQksLBSz7/9lw=
-----END CERTIFICATE-----
