Certificate:
    Data:
        Version: 1 (0x0)
        Serial Number: 2 (0x2)
    Signature Algorithm: ecdsa-with-SHA256
        Issuer: C=QQ, O=Org1, CN=TestCA1
        Validity
            Not Before: Aug  5 19:59:09 2015 GMT
            Not After : Aug 18 19:59:09 2043 GMT
        Subject: C=BB, L=city2, O=Org1, OU=none, CN=client1
        Subject Public Key Info:
            Public Key Algorithm: id-ecPublicKey
                Public-Key: (256 bit)
                pub: 
                    04:ce:16:05:05:ba:1d:58:52:4e:6c:ce:e6:22:e6:
                    1f:19:a6:7c:55:62:fb:53:04:3a:ee:71:a1:3a:87:
                    25:7f:12:5b:c8:d1:92:db:9a:ec:35:f8:eb:05:a6:
                    3c:ba:86:bc:a8:f7:9d:45:ed:50:a1:a0:4d:eb:4e:
                    b6:eb:ac:81:4b
                ASN1 OID: prime256v1
    Signature Algorithm: ecdsa-with-SHA256
         30:44:02:20:67:24:44:83:4a:13:f5:b4:af:22:02:cd:0d:1e:
         9c:b4:36:b5:a6:2b:76:c7:39:06:8a:01:3d:f1:c9:93:72:01:
         02:20:11:79:cd:f0:6b:51:5b:5b:56:26:fc:d9:9f:a1:9c:2f:
         c2:09:5a:3a:31:67:50:47:b6:b1:2e:49:af:8a:d3:93
-----BEGIN CERTIFICATE-----
MIIBYjCCAQkCAQIwCgYIKoZIzj0EAwIwLjELMAkGA1UEBhMCUVExDTALBgNVBAoT
BE9yZzExEDAOBgNVBAMTB1Rlc3RDQTEwHhcNMTUwODA1MTk1OTA5WhcNNDMwODE4
MTk1OTA5WjBNMQswCQYDVQQGEwJCQjEOMAwGA1UEBxMFY2l0eTIxDTALBgNVBAoT
BE9yZzExDTALBgNVBAsTBG5vbmUxEDAOBgNVBAMTB2NsaWVudDEwWTATBgcqhkjO
PQIBBggqhkjOPQMBBwNCAATOFgUFuh1YUk5szuYi5h8ZpnxVYvtTBDrucaE6hyV/
ElvI0ZLbmuw1+OsFpjy6hryo951F7VChoE3rTrbrrIFLMAoGCCqGSM49BAMCA0cA
MEQCIGckRINKE/W0ryICzQ0enLQ2taYrdsc5BooBPfHJk3IBAiARec3wa1FbW1Ym
/NmfoZwvwglaOjFnUEe2sS5Jr4rTkw==
-----END CERTIFICATE-----
