Certificate:
    Data:
        Version: 1 (0x0)
        Serial Number: 3 (0x3)
    Signature Algorithm: ecdsa-with-SHA256
        Issuer: C=QQ, O=Org1, CN=TestCA1
        Validity
            Not Before: Aug  5 19:59:10 2015 GMT
            Not After : Aug 18 19:59:10 2043 GMT
        Subject: C=CC, L=city3, O=Org1, OU=none, CN=random1
        Subject Public Key Info:
            Public Key Algorithm: id-ecPublicKey
                Public-Key: (256 bit)
                pub: 
                    04:11:6f:07:dd:35:fa:43:2b:1e:83:50:74:f7:12:
                    2a:0b:ec:5d:53:80:cf:94:12:de:ea:48:a6:7f:c7:
                    c1:97:56:17:a9:25:d4:db:36:74:c2:d3:a4:a9:d1:
                    14:b0:33:de:e6:f9:aa:3f:3f:91:85:19:78:67:ec:
                    cb:dc:88:5d:5c
                ASN1 OID: prime256v1
    Signature Algorithm: ecdsa-with-SHA256
         30:45:02:21:00:dc:10:40:47:f3:84:11:2e:4d:78:c3:50:d8:
         29:40:ac:49:e3:78:ed:3b:19:69:86:26:40:fd:2c:9a:19:ba:
         97:02:20:2a:b2:5f:d0:26:d3:7c:85:2b:76:f9:67:1e:07:4f:
         5f:41:8b:2e:53:d9:30:99:0e:fe:b7:4b:04:56:c1:83:70
-----BEGIN CERTIFICATE-----
MIIBYzCCAQkCAQMwCgYIKoZIzj0EAwIwLjELMAkGA1UEBhMCUVExDTALBgNVBAoT
BE9yZzExEDAOBgNVBAMTB1Rlc3RDQTEwHhcNMTUwODA1MTk1OTEwWhcNNDMwODE4
MTk1OTEwWjBNMQswCQYDVQQGEwJDQzEOMAwGA1UEBxMFY2l0eTMxDTALBgNVBAoT
BE9yZzExDTALBgNVBAsTBG5vbmUxEDAOBgNVBAMTB3JhbmRvbTEwWTATBgcqhkjO
PQIBBggqhkjOPQMBBwNCAAQRbwfdNfpDKx6DUHT3EioL7F1TgM+UEt7qSKZ/x8GX
VhepJdTbNnTC06Sp0RSwM97m+ao/P5GFGXhn7MvciF1cMAoGCCqGSM49BAMCA0gA
MEUCIQDcEEBH84QRLk14w1DYKUCsSeN47TsZaYYmQP0smhm6lwIgKrJf0CbTfIUr
dvlnHgdPX0GLLlPZMJkO/rdLBFbBg3A=
-----END CERTIFICATE-----
