Certificate:
    Data:
        Version: 1 (0x0)
        Serial Number: 3 (0x3)
    Signature Algorithm: ecdsa-with-SHA256
        Issuer: C=QQ, O=Org1, CN=TestCA1
        Validity
            Not Before: Aug 18 20:51:52 2015 GMT
            Not After : Aug 31 20:51:52 2043 GMT
        Subject: C=CC, L=city3, O=Org1, OU=none, CN=random1
        Subject Public Key Info:
            Public Key Algorithm: id-ecPublicKey
                Public-Key: (384 bit)
                pub: 
                    04:cd:6b:7a:64:98:c7:44:5b:9f:50:b3:cc:7b:e2:
                    18:b4:3e:c8:9f:04:23:cc:60:78:b6:39:b2:0d:c9:
                    7a:ec:93:7e:f6:85:3a:4e:f2:73:8d:e2:69:bb:76:
                    38:e0:83:83:e0:29:15:94:b0:85:35:15:47:b9:32:
                    7b:e9:49:ef:68:41:50:7c:1a:04:ae:f9:38:50:a4:
                    02:c2:2a:2a:96:43:70:dd:06:e4:cf:b1:94:9a:e7:
                    ce:a2:85:a4:a7:e2:db
                ASN1 OID: secp384r1
    Signature Algorithm: ecdsa-with-SHA256
         30:45:02:20:5b:0f:e2:2f:17:0c:2e:c4:fa:09:bd:f5:a1:a8:
         87:03:98:b2:40:84:d6:70:e2:5e:30:21:0c:21:76:4c:09:fe:
         02:21:00:b2:97:6b:73:5c:e5:8e:24:70:65:1e:f8:5f:c4:4a:
         93:c7:8b:fa:22:fd:0a:52:9a:48:cf:10:e4:01:c5:e6:7e
-----BEGIN CERTIFICATE-----
MIIBgDCCASYCAQMwCgYIKoZIzj0EAwIwLjELMAkGA1UEBhMCUVExDTALBgNVBAoT
BE9yZzExEDAOBgNVBAMTB1Rlc3RDQTEwHhcNMTUwODE4MjA1MTUyWhcNNDMwODMx
MjA1MTUyWjBNMQswCQYDVQQGEwJDQzEOMAwGA1UEBxMFY2l0eTMxDTALBgNVBAoT
BE9yZzExDTALBgNVBAsTBG5vbmUxEDAOBgNVBAMTB3JhbmRvbTEwdjAQBgcqhkjO
PQIBBgUrgQQAIgNiAATNa3pkmMdEW59Qs8x74hi0PsifBCPMYHi2ObINyXrsk372
hTpO8nON4mm7djjgg4PgKRWUsIU1FUe5MnvpSe9oQVB8GgSu+ThQpALCKiqWQ3Dd
BuTPsZSa586ihaSn4tswCgYIKoZIzj0EAwIDSAAwRQIgWw/iLxcMLsT6Cb31oaiH
A5iyQITWcOJeMCEMIXZMCf4CIQCyl2tzXOWOJHBlHvhfxEqTx4v6Iv0KUppIzxDk
AcXmfg==
-----END CERTIFICATE-----
