Certificate:
    Data:
        Version: 1 (0x0)
        Serial Number: 1 (0x1)
    Signature Algorithm: ecdsa-with-SHA256
        Issuer: C=ZZ, O=Org1, CN=TestCA2
        Validity
            Not Before: Aug  5 19:59:10 2015 GMT
            Not After : Aug 18 19:59:10 2043 GMT
        Subject: C=DD, L=city4, O=Org2, OU=none, CN=sample.org
        Subject Public Key Info:
            Public Key Algorithm: id-ecPublicKey
                Public-Key: (256 bit)
                pub: 
                    04:08:a7:95:de:d5:80:79:0a:e8:70:f0:8a:5c:33:
                    31:e4:c7:6f:c4:13:44:49:1d:63:51:9c:24:52:3b:
                    75:e8:6b:01:c2:95:2f:5a:91:62:dc:47:24:8e:dc:
                    fe:7e:76:6d:f7:ac:33:79:04:19:ae:b2:c3:f0:6d:
                    85:26:ec:68:5e
                ASN1 OID: prime256v1
    Signature Algorithm: ecdsa-with-SHA256
         30:46:02:21:00:99:91:b2:37:16:01:8c:85:12:95:cc:c5:1d:
         52:49:98:06:d7:27:0b:31:2b:a6:ec:c9:d3:b7:12:69:b7:fa:
         40:02:21:00:83:3f:32:95:d7:d7:64:c4:13:51:5e:03:0e:20:
         10:c0:2b:44:04:02:48:2c:7f:6d:65:d4:93:9f:18:5a:89:3e
-----BEGIN CERTIFICATE-----
MIIBZzCCAQwCAQEwCgYIKoZIzj0EAwIwLjELMAkGA1UEBhMCWloxDTALBgNVBAoT
BE9yZzExEDAOBgNVBAMTB1Rlc3RDQTIwHhcNMTUwODA1MTk1OTEwWhcNNDMwODE4
MTk1OTEwWjBQMQswCQYDVQQGEwJERDEOMAwGA1UEBxMFY2l0eTQxDTALBgNVBAoT
BE9yZzIxDTALBgNVBAsTBG5vbmUxEzARBgNVBAMTCnNhbXBsZS5vcmcwWTATBgcq
hkjOPQIBBggqhkjOPQMBBwNCAAQIp5Xe1YB5Cuhw8IpcMzHkx2/EE0RJHWNRnCRS
O3XoawHClS9akWLcRySO3P5+dm33rDN5BBmussPwbYUm7GheMAoGCCqGSM49BAMC
A0kAMEYCIQCZkbI3FgGMhRKVzMUdUkmYBtcnCzErpuzJ07cSabf6QAIhAIM/MpXX
12TEE1FeAw4gEMArRAQCSCx/bWXUk58YWok+
-----END CERTIFICATE-----
