Certificate:
    Data:
        Version: 1 (0x0)
        Serial Number: 1 (0x1)
    Signature Algorithm: sha256WithRSAEncryption
        Issuer: C=ZZ, O=Org1, CN=TestCA2
        Validity
            Not Before: Aug 18 20:51:52 2015 GMT
            Not After : Aug 31 20:51:52 2043 GMT
        Subject: C=DD, L=city4, O=Org2, OU=none, CN=sample.org
        Subject Public Key Info:
            Public Key Algorithm: rsaEncryption
                Public-Key: (2048 bit)
                Modulus:
                    00:ae:69:02:36:dd:50:79:d6:45:4d:d0:13:d7:40:
                    d8:cf:fc:8c:e7:83:1a:ee:7e:91:a6:87:32:5e:ae:
                    2b:81:41:f3:de:d1:16:0f:b1:06:e8:05:92:24:78:
                    19:40:bd:bd:fa:02:f7:53:af:89:7b:f0:fb:33:19:
                    bd:19:08:70:69:02:b6:5f:f4:be:ea:f1:54:d9:30:
                    19:fc:f5:47:61:9b:79:c2:27:1f:b9:bd:f7:85:77:
                    01:8c:1d:fd:95:f3:0a:1f:4b:e0:c5:d8:0c:4b:14:
                    61:8f:16:1c:4d:0a:42:f3:eb:7a:c2:d8:30:62:71:
                    0e:9b:da:c7:9d:ca:5f:fa:13:10:31:c1:ca:54:cd:
                    95:a3:77:f7:3a:6e:2d:54:cf:0b:f0:2d:7c:55:03:
                    42:be:4e:d2:62:23:d2:a3:ea:c3:fa:e2:5e:ad:7b:
                    a8:2a:86:ac:f2:1a:62:d5:4f:88:74:d7:3d:be:37:
                    9b:d0:c7:cc:ff:7a:78:9b:a8:1b:73:bb:6e:9c:6a:
                    d1:07:e2:d0:c9:8a:60:13:f2:67:17:2d:9b:74:c9:
                    a4:9d:00:0c:94:b6:68:c7:21:3a:60:03:62:84:6e:
                    15:39:9e:54:7d:20:a1:b2:29:1a:a9:56:80:82:cc:
                    1b:a5:51:9b:c1:e1:08:13:1f:a4:a1:22:80:df:cc:
                    4f:cb
                Exponent: 65537 (0x10001)
    Signature Algorithm: sha256WithRSAEncryption
         97:80:6a:ae:f2:3a:d0:9e:82:eb:28:c0:83:1a:e0:e9:18:f5:
         06:3c:2f:9b:0a:2c:4a:f9:3b:37:74:dc:a3:db:e3:eb:cc:59:
         a1:b8:be:a3:6b:56:8e:34:90:4e:00:43:0b:62:56:1f:24:f5:
         28:df:10:0e:3a:5a:29:77:30:cc:70:64:43:81:10:7d:d9:76:
         60:11:42:cd:05:7e:69:5e:87:a7:1d:30:5e:87:75:84:9e:cb:
         0c:d5:81:8d:1f:69:c5:b8:6f:f6:f9:39:6a:bc:fb:61:07:fa:
         fd:65:25:b2:ae:e1:95:30:f3:82:a3:01:27:43:67:8a:3d:f9:
         62:14:79:30:f9:7c:4a:d1:c6:c5:2e:73:65:02:25:d0:67:06:
         1c:a2:11:b3:f7:7b:6c:19:43:75:6c:ad:c2:fa:ea:09:a5:f2:
         fe:d3:bd:13:2f:20:8c:72:dd:e7:96:86:48:67:ba:d8:ee:83:
         ce:4d:39:76:11:79:e2:ad:a5:dd:f2:d2:76:ec:48:1f:2b:c0:
         a5:42:34:ff:66:e8:f2:b1:c2:f3:33:31:25:47:62:04:3d:a8:
         ff:ac:4f:dd:b0:5b:5e:3e:0d:33:f8:87:a8:ae:8d:67:7c:09:
         cd:7a:08:99:83:97:90:cc:a9:a2:30:01:c4:c8:b2:7c:bc:5c:
         a3:ed:d6:3f
-----BEGIN CERTIFICATE-----
MIIC8jCCAdoCAQEwDQYJKoZIhvcNAQELBQAwLjELMAkGA1UEBhMCWloxDTALBgNV
BAoTBE9yZzExEDAOBgNVBAMTB1Rlc3RDQTIwHhcNMTUwODE4MjA1MTUyWhcNNDMw
ODMxMjA1MTUyWjBQMQswCQYDVQQGEwJERDEOMAwGA1UEBxMFY2l0eTQxDTALBgNV
BAoTBE9yZzIxDTALBgNVBAsTBG5vbmUxEzARBgNVBAMTCnNhbXBsZS5vcmcwggEi
MA0GCSqGSIb3DQEBAQUAA4IBDwAwggEKAoIBAQCuaQI23VB51kVN0BPXQNjP/Izn
gxrufpGmhzJeriuBQfPe0RYPsQboBZIkeBlAvb36AvdTr4l78PszGb0ZCHBpArZf
9L7q8VTZMBn89Udhm3nCJx+5vfeFdwGMHf2V8wofS+DF2AxLFGGPFhxNCkLz63rC
2DBicQ6b2sedyl/6ExAxwcpUzZWjd/c6bi1UzwvwLXxVA0K+TtJiI9Kj6sP64l6t
e6gqhqzyGmLVT4h01z2+N5vQx8z/enibqBtzu26catEH4tDJimAT8mcXLZt0yaSd
AAyUtmjHITpgA2KEbhU5nlR9IKGyKRqpVoCCzBulUZvB4QgTH6ShIoDfzE/LAgMB
AAEwDQYJKoZIhvcNAQELBQADggEBAJeAaq7yOtCegusowIMa4OkY9QY8L5sKLEr5
Ozd03KPb4+vMWaG4vqNrVo40kE4AQwtiVh8k9SjfEA46Wil3MMxwZEOBEH3ZdmAR
Qs0Ffmleh6cdMF6HdYSeywzVgY0facW4b/b5OWq8+2EH+v1lJbKu4ZUw84KjASdD
Z4o9+WIUeTD5fErRxsUuc2UCJdBnBhyiEbP3e2wZQ3VsrcL66gml8v7TvRMvIIxy
3eeWhkhnutjug85NOXYReeKtpd3y0nbsSB8rwKVCNP9m6PKxwvMzMSVHYgQ9qP+s
T92wW14+DTP4h6iujWd8Cc16CJmDl5DMqaIwAcTIsny8XKPt1j8=
-----END CERTIFICATE-----
