Certificate:
    Data:
        Version: 1 (0x0)
        Serial Number: 2 (0x2)
    Signature Algorithm: sha256WithRSAEncryption
        Issuer: C=ZZ, O=Org1, CN=TestCA2
        Validity
            Not Before: Aug 18 20:51:52 2015 GMT
            Not After : Aug 31 20:51:52 2043 GMT
        Subject: C=EE, L=city5, O=Org2, OU=none, CN=client2
        Subject Public Key Info:
            Public Key Algorithm: rsaEncryption
                Public-Key: (2048 bit)
                Modulus:
                    00:ca:41:0a:27:41:45:27:74:58:29:62:8e:04:e5:
                    8d:82:b4:dc:ce:61:78:ec:fd:90:e5:52:64:b7:0e:
                    db:ef:0d:aa:29:9d:69:41:e3:b4:7c:b3:d0:23:9e:
                    72:7f:dd:06:3b:fc:74:2b:dc:c4:ee:94:bd:e5:9e:
                    17:5a:82:49:66:96:17:ab:9e:35:c5:5b:98:9e:68:
                    70:49:b7:88:6e:c7:77:86:0b:7e:68:06:28:23:c4:
                    5d:dc:0b:8a:b6:c2:75:ae:83:30:45:87:35:30:e9:
                    55:76:82:04:0c:7a:1b:3c:77:97:f9:dc:b6:0a:08:
                    ec:fa:55:6d:9a:24:dd:c5:92:c1:75:5c:ff:80:09:
                    0d:ed:31:4d:6c:25:ab:df:0a:84:a4:9c:e3:e9:97:
                    24:bd:d0:fa:6c:ef:fd:62:61:f2:97:f6:f0:37:21:
                    ae:09:f2:ad:fe:2a:08:24:f5:f9:08:7d:a9:fb:3a:
                    7b:de:1c:07:ea:f8:6d:7e:7e:6d:fb:c2:69:8a:65:
                    b7:d2:ee:10:8d:50:5b:9e:e2:9c:85:24:67:3c:c2:
                    b8:16:e9:4d:82:02:d6:2f:0b:1d:40:4d:12:1f:5c:
                    38:31:06:60:8b:ac:99:bc:90:84:db:b7:23:ad:2f:
                    bf:00:07:b0:31:d8:9b:b1:7f:ae:03:37:08:61:d8:
                    44:13
                Exponent: 65537 (0x10001)
    Signature Algorithm: sha256WithRSAEncryption
         32:40:3d:76:35:28:9d:cd:4f:8f:c4:66:ca:5c:20:35:58:82:
         6c:fa:29:1a:fc:dc:ed:2e:e9:58:37:27:df:35:c3:52:7a:39:
         52:d5:87:8e:1a:23:49:cf:e8:e3:e3:2b:41:49:30:16:7b:bf:
         13:d4:30:d0:2b:ad:b1:8c:19:8f:75:2f:00:ca:37:8d:3e:bd:
         e4:6b:34:f8:5d:b7:ad:7d:55:8e:f6:23:a3:a4:f5:ae:ed:76:
         ec:98:05:ef:e1:18:bb:cc:6a:98:bd:23:4f:12:02:20:ac:74:
         52:24:ff:2b:f9:b2:8c:75:bb:b6:5a:6d:39:b6:09:e6:c5:34:
         75:b7:96:be:e7:e6:a7:ca:69:3e:6e:31:39:c8:86:8a:3b:79:
         a9:08:d4:fa:53:cc:12:87:c3:7d:25:49:c4:a3:19:b5:69:cd:
         85:b8:e7:df:6f:41:6a:64:38:a7:1a:cd:c6:5c:e4:8e:9c:47:
         be:a5:62:53:2c:4e:35:32:4d:ad:ed:0b:1e:09:d5:40:97:90:
         b5:f0:48:71:38:07:64:66:08:80:f0:2d:b1:bc:18:13:9e:a9:
         5e:c9:bb:47:de:1c:8c:9a:06:4b:4f:32:0e:37:dc:0b:aa:c9:
         6d:4a:f8:20:a6:1b:f8:f6:5c:8b:c5:47:6e:87:e4:de:77:6e:
         68:42:83:88
-----BEGIN CERTIFICATE-----
MIIC7zCCAdcCAQIwDQYJKoZIhvcNAQELBQAwLjELMAkGA1UEBhMCWloxDTALBgNV
BAoTBE9yZzExEDAOBgNVBAMTB1Rlc3RDQTIwHhcNMTUwODE4MjA1MTUyWhcNNDMw
ODMxMjA1MTUyWjBNMQswCQYDVQQGEwJFRTEOMAwGA1UEBxMFY2l0eTUxDTALBgNV
BAoTBE9yZzIxDTALBgNVBAsTBG5vbmUxEDAOBgNVBAMTB2NsaWVudDIwggEiMA0G
CSqGSIb3DQEBAQUAA4IBDwAwggEKAoIBAQDKQQonQUUndFgpYo4E5Y2CtNzOYXjs
/ZDlUmS3DtvvDaopnWlB47R8s9AjnnJ/3QY7/HQr3MTulL3lnhdagklmlhernjXF
W5ieaHBJt4hux3eGC35oBigjxF3cC4q2wnWugzBFhzUw6VV2ggQMehs8d5f53LYK
COz6VW2aJN3FksF1XP+ACQ3tMU1sJavfCoSknOPplyS90Pps7/1iYfKX9vA3Ia4J
8q3+Kggk9fkIfan7OnveHAfq+G1+fm37wmmKZbfS7hCNUFue4pyFJGc8wrgW6U2C
AtYvCx1ATRIfXDgxBmCLrJm8kITbtyOtL78AB7Ax2Juxf64DNwhh2EQTAgMBAAEw
DQYJKoZIhvcNAQELBQADggEBADJAPXY1KJ3NT4/EZspcIDVYgmz6KRr83O0u6Vg3
J981w1J6OVLVh44aI0nP6OPjK0FJMBZ7vxPUMNArrbGMGY91LwDKN40+veRrNPhd
t619VY72I6Ok9a7tduyYBe/hGLvMapi9I08SAiCsdFIk/yv5sox1u7ZabTm2CebF
NHW3lr7n5qfKaT5uMTnIhoo7eakI1PpTzBKHw30lScSjGbVpzYW4599vQWpkOKca
zcZc5I6cR76lYlMsTjUyTa3tCx4J1UCXkLXwSHE4B2RmCIDwLbG8GBOeqV7Ju0fe
HIyaBktPMg433AuqyW1K+CCmG/j2XIvFR26H5N53bmhCg4g=
-----END CERTIFICATE-----
