Certificate:
    Data:
        Version: 1 (0x0)
        Serial Number: 3 (0x3)
    Signature Algorithm: ecdsa-with-SHA256
        Issuer: C=ZZ, O=Org1, CN=TestCA2
        Validity
            Not Before: Aug  5 19:59:10 2015 GMT
            Not After : Aug 18 19:59:10 2043 GMT
        Subject: C=FF, L=city6, O=Org2, OU=none, CN=random2
        Subject Public Key Info:
            Public Key Algorithm: id-ecPublicKey
                Public-Key: (256 bit)
                pub: 
                    04:d2:40:01:0f:c7:93:49:63:f6:53:0f:f8:69:a6:
                    d6:13:95:ac:c8:08:96:a4:e5:7a:ec:42:01:d5:64:
                    ba:52:20:2e:61:ce:62:c8:1e:39:d4:18:ea:93:e6:
                    ea:af:10:c9:e3:c2:dd:79:00:fc:72:87:4f:32:01:
                    59:b6:b4:74:70
                ASN1 OID: prime256v1
    Signature Algorithm: ecdsa-with-SHA256
         30:46:02:21:00:c6:78:c0:e6:9f:19:7a:24:62:cc:b5:b3:16:
         b1:f4:12:6c:29:7d:ea:52:49:6e:8c:16:6a:c3:0b:4a:23:e4:
         16:02:21:00:9d:98:92:ce:f3:5f:7b:f1:e6:2b:c7:b4:44:3c:
         6f:a9:a1:33:d3:c4:de:41:8d:07:b9:39:b7:ed:ab:ef:db:26
-----BEGIN CERTIFICATE-----
MIIBZDCCAQkCAQMwCgYIKoZIzj0EAwIwLjELMAkGA1UEBhMCWloxDTALBgNVBAoT
BE9yZzExEDAOBgNVBAMTB1Rlc3RDQTIwHhcNMTUwODA1MTk1OTEwWhcNNDMwODE4
MTk1OTEwWjBNMQswCQYDVQQGEwJGRjEOMAwGA1UEBxMFY2l0eTYxDTALBgNVBAoT
BE9yZzIxDTALBgNVBAsTBG5vbmUxEDAOBgNVBAMTB3JhbmRvbTIwWTATBgcqhkjO
PQIBBggqhkjOPQMBBwNCAATSQAEPx5NJY/ZTD/hpptYTlazICJak5XrsQgHVZLpS
IC5hzmLIHjnUGOqT5uqvEMnjwt15APxyh08yAVm2tHRwMAoGCCqGSM49BAMCA0kA
MEYCIQDGeMDmnxl6JGLMtbMWsfQSbCl96lJJbowWasMLSiPkFgIhAJ2Yks7zX3vx
5ivHtEQ8b6mhM9PE3kGNB7k5t+2r79sm
-----END CERTIFICATE-----
