Certificate:
    Data:
        Version: 1 (0x0)
        Serial Number: 3 (0x3)
    Signature Algorithm: sha256WithRSAEncryption
        Issuer: C=ZZ, O=Org1, CN=TestCA2
        Validity
            Not Before: Aug 18 20:51:52 2015 GMT
            Not After : Aug 31 20:51:52 2043 GMT
        Subject: C=FF, L=city6, O=Org2, OU=none, CN=random2
        Subject Public Key Info:
            Public Key Algorithm: rsaEncryption
                Public-Key: (2048 bit)
                Modulus:
                    00:bc:c6:c4:c5:fe:11:f9:86:eb:40:dc:95:0c:92:
                    37:0a:67:b0:13:52:a2:79:56:7c:3c:ce:56:36:42:
                    a7:83:5d:ad:f3:5c:47:7d:5b:3b:f4:83:f8:06:50:
                    07:25:92:db:78:5a:37:29:c6:51:6b:4b:ea:d2:ec:
                    15:7b:99:87:67:82:fa:5f:9e:90:d8:4c:d4:ef:b7:
                    61:c9:74:d8:47:52:07:1f:59:a3:8a:53:46:4d:04:
                    2c:8a:38:45:2b:4a:cb:2b:d4:c8:7a:b0:46:6e:a1:
                    e6:2c:90:4e:86:f2:c6:af:0e:06:61:ac:8f:d4:04:
                    9d:97:3d:43:ac:98:87:cf:a1:24:fa:2e:c9:1b:3d:
                    c1:0f:f1:a2:ae:98:1a:62:41:7c:27:58:be:e7:f7:
                    87:aa:9d:a1:3b:57:85:02:87:04:a1:6d:4b:8f:99:
                    2b:db:8d:24:5f:38:a8:f7:91:8e:76:b4:1d:23:76:
                    68:f3:26:bb:61:32:9f:54:bf:44:eb:8e:ac:f8:68:
                    35:d5:ad:35:f7:68:61:bb:45:88:6a:1c:14:55:e4:
                    c7:cc:ec:2a:ac:d8:48:94:f8:1e:8c:a2:c3:f7:06:
                    b5:b3:df:80:d2:ff:34:ea:4f:89:6e:47:75:15:58:
                    75:9b:cb:56:3a:30:e5:2f:38:53:23:e2:81:af:76:
                    f8:9f
                Exponent: 65537 (0x10001)
    Signature Algorithm: sha256WithRSAEncryption
         b2:6d:a4:40:c7:c6:39:77:96:ef:e2:81:bf:36:30:d4:06:21:
         d5:8d:26:f8:55:c4:7c:40:45:f3:1f:01:4d:4b:21:17:63:4c:
         85:f4:d2:f6:05:d8:94:90:e0:a8:48:40:ae:eb:97:06:58:73:
         5c:e7:99:c3:e1:88:60:37:65:0f:ab:e7:bf:1d:d8:71:9a:47:
         02:e0:42:9c:0c:92:8c:4b:1b:ce:3d:7e:10:ed:74:81:52:d2:
         6c:e7:f8:41:7a:7d:66:48:30:14:18:e8:a4:62:79:66:ac:05:
         bc:81:e8:4f:40:2c:59:46:54:bb:f2:59:0c:a2:66:8e:d9:0f:
         db:ee:ba:20:f2:95:ca:db:05:96:b2:8c:e4:ab:bb:17:fa:8d:
         52:03:5d:f6:67:87:36:4a:cb:87:64:a8:12:53:a9:c4:6a:c6:
         65:2a:f8:f1:25:8e:67:5f:d5:bc:4f:9e:33:27:2c:52:11:0f:
         12:13:5d:4f:ed:68:77:f7:52:3b:c8:38:ed:94:11:c7:59:0e:
         6d:dc:f1:0e:51:b2:61:0b:a6:c3:05:c8:3d:c4:b6:f0:65:75:
         6b:ef:8d:f3:e5:3c:b8:5f:08:38:6c:90:94:25:23:52:4a:be:
         0c:e6:d0:af:d3:a6:38:89:81:80:52:ed:30:9d:d5:35:95:b3:
         c8:50:43:af
-----BEGIN CERTIFICATE-----
MIIC7zCCAdcCAQMwDQYJKoZIhvcNAQELBQAwLjELMAkGA1UEBhMCWloxDTALBgNV
BAoTBE9yZzExEDAOBgNVBAMTB1Rlc3RDQTIwHhcNMTUwODE4MjA1MTUyWhcNNDMw
ODMxMjA1MTUyWjBNMQswCQYDVQQGEwJGRjEOMAwGA1UEBxMFY2l0eTYxDTALBgNV
BAoTBE9yZzIxDTALBgNVBAsTBG5vbmUxEDAOBgNVBAMTB3JhbmRvbTIwggEiMA0G
CSqGSIb3DQEBAQUAA4IBDwAwggEKAoIBAQC8xsTF/hH5hutA3JUMkjcKZ7ATUqJ5
Vnw8zlY2QqeDXa3zXEd9Wzv0g/gGUAclktt4WjcpxlFrS+rS7BV7mYdngvpfnpDY
TNTvt2HJdNhHUgcfWaOKU0ZNBCyKOEUrSssr1Mh6sEZuoeYskE6G8savDgZhrI/U
BJ2XPUOsmIfPoST6LskbPcEP8aKumBpiQXwnWL7n94eqnaE7V4UChwShbUuPmSvb
jSRfOKj3kY52tB0jdmjzJrthMp9Uv0Trjqz4aDXVrTX3aGG7RYhqHBRV5MfM7Cqs
2EiU+B6MosP3BrWz34DS/zTqT4luR3UVWHWby1Y6MOUvOFMj4oGvdvifAgMBAAEw
DQYJKoZIhvcNAQELBQADggEBALJtpEDHxjl3lu/igb82MNQGIdWNJvhVxHxARfMf
AU1LIRdjTIX00vYF2JSQ4KhIQK7rlwZYc1znmcPhiGA3ZQ+r578d2HGaRwLgQpwM
koxLG849fhDtdIFS0mzn+EF6fWZIMBQY6KRieWasBbyB6E9ALFlGVLvyWQyiZo7Z
D9vuuiDylcrbBZayjOSruxf6jVIDXfZnhzZKy4dkqBJTqcRqxmUq+PEljmdf1bxP
njMnLFIRDxITXU/taHf3UjvIOO2UEcdZDm3c8Q5RsmELpsMFyD3EtvBldWvvjfPl
PLhfCDhskJQlI1JKvgzm0K/TpjiJgYBS7TCd1TWVs8hQQ68=
-----END CERTIFICATE-----
